; ModuleID = '38/282.c'
source_filename = "38/282.c"
target datalayout = "e-m:e-p270:32:32-p271:32:32-p272:64:64-i64:64-f80:128-n8:16:32:64-S128"
target triple = "x86_64-pc-linux-gnu"

@.str = private unnamed_addr constant [3 x i8] c"%d\00", align 1
@.str.1 = private unnamed_addr constant [4 x i8] c"%lf\00", align 1
@.str.2 = private unnamed_addr constant [7 x i8] c"%.5lf\0A\00", align 1

; Function Attrs: noinline nounwind uwtable
define dso_local i32 @main(i32 %0, i8** %1) #0 {
  %3 = alloca i32, align 4
  %4 = alloca i32, align 4
  %5 = alloca i8**, align 8
  %6 = alloca i32, align 4
  %7 = alloca i32, align 4
  %8 = alloca i32, align 4
  %9 = alloca i32, align 4
  %10 = alloca [100 x double], align 16
  %11 = alloca double, align 8
  %12 = alloca double, align 8
  %13 = alloca double, align 8
  %14 = alloca double, align 8
  store i32 0, i32* %3, align 4
  store i32 %0, i32* %4, align 4
  store i8** %1, i8*** %5, align 8
  %15 = call i32 (i8*, ...) @__isoc99_scanf(i8* getelementptr inbounds ([3 x i8], [3 x i8]* @.str, i64 0, i64 0), i32* %8)
  store i32 0, i32* %6, align 4
  br label %16

16:                                               ; preds = %76, %2
  %17 = load i32, i32* %6, align 4
  %18 = load i32, i32* %8, align 4
  %19 = icmp slt i32 %17, %18
  br i1 %19, label %20, label %79

20:                                               ; preds = %16
  store double 0.000000e+00, double* %11, align 8
  store double 0.000000e+00, double* %12, align 8
  store double 0.000000e+00, double* %13, align 8
  store double 0.000000e+00, double* %14, align 8
  %21 = call i32 (i8*, ...) @__isoc99_scanf(i8* getelementptr inbounds ([3 x i8], [3 x i8]* @.str, i64 0, i64 0), i32* %9)
  store i32 0, i32* %7, align 4
  br label %22

22:                                               ; preds = %37, %20
  %23 = load i32, i32* %7, align 4
  %24 = load i32, i32* %9, align 4
  %25 = icmp slt i32 %23, %24
  br i1 %25, label %26, label %40

26:                                               ; preds = %22
  %27 = load i32, i32* %7, align 4
  %28 = sext i32 %27 to i64
  %29 = getelementptr inbounds [100 x double], [100 x double]* %10, i64 0, i64 %28
  %30 = call i32 (i8*, ...) @__isoc99_scanf(i8* getelementptr inbounds ([4 x i8], [4 x i8]* @.str.1, i64 0, i64 0), double* %29)
  %31 = load i32, i32* %7, align 4
  %32 = sext i32 %31 to i64
  %33 = getelementptr inbounds [100 x double], [100 x double]* %10, i64 0, i64 %32
  %34 = load double, double* %33, align 8
  %35 = load double, double* %11, align 8
  %36 = fadd double %35, %34
  store double %36, double* %11, align 8
  br label %37

37:                                               ; preds = %26
  %38 = load i32, i32* %7, align 4
  %39 = add nsw i32 %38, 1
  store i32 %39, i32* %7, align 4
  br label %22

40:                                               ; preds = %22
  %41 = load double, double* %11, align 8
  %42 = load i32, i32* %7, align 4
  %43 = sitofp i32 %42 to double
  %44 = fdiv double %41, %43
  store double %44, double* %12, align 8
  store i32 0, i32* %7, align 4
  br label %45

45:                                               ; preds = %65, %40
  %46 = load i32, i32* %7, align 4
  %47 = load i32, i32* %9, align 4
  %48 = icmp slt i32 %46, %47
  br i1 %48, label %49, label %68

49:                                               ; preds = %45
  %50 = load double, double* %13, align 8
  %51 = load i32, i32* %7, align 4
  %52 = sext i32 %51 to i64
  %53 = getelementptr inbounds [100 x double], [100 x double]* %10, i64 0, i64 %52
  %54 = load double, double* %53, align 8
  %55 = load double, double* %12, align 8
  %56 = fsub double %54, %55
  %57 = load i32, i32* %7, align 4
  %58 = sext i32 %57 to i64
  %59 = getelementptr inbounds [100 x double], [100 x double]* %10, i64 0, i64 %58
  %60 = load double, double* %59, align 8
  %61 = load double, double* %12, align 8
  %62 = fsub double %60, %61
  %63 = fmul double %56, %62
  %64 = fadd double %50, %63
  store double %64, double* %13, align 8
  br label %65

65:                                               ; preds = %49
  %66 = load i32, i32* %7, align 4
  %67 = add nsw i32 %66, 1
  store i32 %67, i32* %7, align 4
  br label %45

68:                                               ; preds = %45
  %69 = load double, double* %13, align 8
  %70 = load i32, i32* %9, align 4
  %71 = sitofp i32 %70 to double
  %72 = fdiv double %69, %71
  %73 = call double @sqrt(double %72) #3
  store double %73, double* %14, align 8
  %74 = load double, double* %14, align 8
  %75 = call i32 (i8*, ...) @printf(i8* getelementptr inbounds ([7 x i8], [7 x i8]* @.str.2, i64 0, i64 0), double %74)
  br label %76

76:                                               ; preds = %68
  %77 = load i32, i32* %6, align 4
  %78 = add nsw i32 %77, 1
  store i32 %78, i32* %6, align 4
  br label %16

79:                                               ; preds = %16
  ret i32 0
}

declare dso_local i32 @__isoc99_scanf(i8*, ...) #1

; Function Attrs: nounwind
declare dso_local double @sqrt(double) #2

declare dso_local i32 @printf(i8*, ...) #1


!llvm.module.flags = !{!0}
!llvm.ident = !{!1}

!0 = !{i32 1, !"wchar_size", i32 4}
!1 = !{!"clang version 10.0.0-4ubuntu1 "}
